; Function Attrs: nofree norecurse nosync nounwind sspstrong memory(argmem: read) uwtable
define hidden i64 @pm_encoding_utf_8_alpha_char(ptr noundef readonly captures(none) %0, i64 noundef %1) #0 {
  %3 = load i8, ptr %0, align 1, !tbaa !7
  %4 = icmp sgt i8 %3, -1
  br i1 %4, label %5, label %11

5:                                                ; preds = %2
  %6 = zext nneg i8 %3 to i64
  %7 = getelementptr [256 x i8], ptr @pm_encoding_unicode_table, i64 0, i64 %6
  %8 = load i8, ptr %7, align 1, !tbaa !7
  %9 = and i8 %8, 1
  %10 = zext nneg i8 %9 to i64
  br label %pm_unicode_codepoint_match.exit

11:                                               ; preds = %2
  %.not2934.not.i = icmp eq i64 %1, 0
  br i1 %.not2934.not.i, label %pm_utf_8_codepoint.exit.thread, label %.lr.ph.preheader.i

.lr.ph.preheader.i:                               ; preds = %11
  %12 = tail call i64 @llvm.smin.i64(i64 %1, i64 4)
  %umax.i = tail call i64 @llvm.umax.i64(i64 %12, i64 1)
  br label %.lr.ph.i

.lr.ph.i:                                         ; preds = %35, %.lr.ph.preheader.i
  %.02337.i = phi i32 [ %28, %35 ], [ undef, %.lr.ph.preheader.i ]
  %.02636.i = phi i64 [ %37, %35 ], [ 0, %.lr.ph.preheader.i ]
  %.02735.i = phi i32 [ %36, %35 ], [ 0, %.lr.ph.preheader.i ]
  %13 = getelementptr i8, ptr %0, i64 %.02636.i
  %14 = load i8, ptr %13, align 1, !tbaa !7
  %15 = zext i8 %14 to i32
  %16 = zext i8 %14 to i64
  %17 = getelementptr [400 x i8], ptr @pm_utf_8_dfa, i64 0, i64 %16
  %18 = load i8, ptr %17, align 1, !tbaa !7
  %19 = zext i8 %18 to i32
  %.not.i = icmp eq i32 %.02735.i, 0
  br i1 %.not.i, label %24, label %20

20:                                               ; preds = %.lr.ph.i
  %21 = and i32 %15, 63
  %22 = shl i32 %.02337.i, 6
  %23 = or disjoint i32 %21, %22
  br label %27

24:                                               ; preds = %.lr.ph.i
  %25 = lshr i32 255, %19
  %26 = and i32 %25, %15
  br label %27

27:                                               ; preds = %24, %20
  %28 = phi i32 [ %23, %20 ], [ %26, %24 ]
  %29 = shl nuw nsw i32 %.02735.i, 4
  %30 = add nuw nsw i32 %29, 256
  %31 = add nuw nsw i32 %30, %19
  %32 = zext nneg i32 %31 to i64
  %33 = getelementptr [400 x i8], ptr @pm_utf_8_dfa, i64 0, i64 %32
  %34 = load i8, ptr %33, align 1, !tbaa !7
  %.not28.i = icmp eq i8 %34, 0
  br i1 %.not28.i, label %pm_utf_8_codepoint.exit, label %35

35:                                               ; preds = %27
  %36 = zext i8 %34 to i32
  %37 = add nuw i64 %.02636.i, 1
  %exitcond.not.i = icmp eq i64 %37, %umax.i
  br i1 %exitcond.not.i, label %pm_utf_8_codepoint.exit.thread, label %.lr.ph.i, !llvm.loop !12

pm_utf_8_codepoint.exit:                          ; preds = %27
  %38 = add nuw i64 %.02636.i, 1
  %39 = icmp ult i32 %28, 256
  br i1 %39, label %pm_utf_8_codepoint.exit.thread, label %.preheader

pm_utf_8_codepoint.exit.thread:                   ; preds = %35, %11, %pm_utf_8_codepoint.exit
  %.3.i14 = phi i32 [ %28, %pm_utf_8_codepoint.exit ], [ 0, %11 ], [ 0, %35 ]
  %storemerge.i13 = phi i64 [ %38, %pm_utf_8_codepoint.exit ], [ 0, %11 ], [ 0, %35 ]
  %40 = zext nneg i32 %.3.i14 to i64
  %41 = getelementptr [256 x i8], ptr @pm_encoding_unicode_table, i64 0, i64 %40
  %42 = load i8, ptr %41, align 1, !tbaa !7
  %43 = and i8 %42, 1
  %.not = icmp eq i8 %43, 0
  %44 = select i1 %.not, i64 0, i64 %storemerge.i13
  br label %pm_unicode_codepoint_match.exit

.preheader:                                       ; preds = %pm_utf_8_codepoint.exit, %53
  %.02135.i = phi i64 [ %.2.i, %53 ], [ 1450, %pm_utf_8_codepoint.exit ]
  %.02234.i = phi i64 [ %.224.i, %53 ], [ 0, %pm_utf_8_codepoint.exit ]
  %45 = sub nuw i64 %.02135.i, %.02234.i
  %46 = lshr i64 %45, 1
  %47 = add i64 %46, %.02234.i
  %spec.select.i = and i64 %47, -2
  %48 = getelementptr i32, ptr @unicode_alpha_codepoints, i64 %spec.select.i
  %49 = load i32, ptr %48, align 8, !tbaa !13
  %.not29.i = icmp ult i32 %28, %49
  br i1 %.not29.i, label %53, label %50

50:                                               ; preds = %.preheader
  %51 = getelementptr i8, ptr %48, i64 4
  %52 = load i32, ptr %51, align 4, !tbaa !13
  %.not30.i = icmp ugt i32 %28, %52
  br i1 %.not30.i, label %53, label %pm_unicode_codepoint_match.exit

53:                                               ; preds = %50, %.preheader
  %.2.i = phi i64 [ %spec.select.i, %.preheader ], [ %.02135.i, %50 ]
  %54 = add i64 %spec.select.i, 2
  %.224.i = select i1 %.not29.i, i64 %.02234.i, i64 %54
  %55 = icmp ult i64 %.224.i, %.2.i
  br i1 %55, label %.preheader, label %pm_unicode_codepoint_match.exit, !llvm.loop !15

pm_unicode_codepoint_match.exit:                  ; preds = %50, %53, %pm_utf_8_codepoint.exit.thread, %5
  %.0 = phi i64 [ %10, %5 ], [ %44, %pm_utf_8_codepoint.exit.thread ], [ %38, %50 ], [ 0, %53 ]
  ret i64 %.0
}